target datalayout = "e-m:e-p270:32:32-p271:32:32-p272:64:64-i64:64-i128:128-f80:128-n8:16:32:64-S128"
target triple = "x86_64-pc-linux-gnu"

%struct.ssl3_enc_method = type { ptr, ptr, ptr }

@SSLv3_enc_data = external constant %struct.ssl3_enc_method, align 8
@TLSv1_enc_data = external constant %struct.ssl3_enc_method, align 8

; Function Attrs: nounwind uwtable
define hidden ptr @ssl3_get_enc_method(i16 noundef zeroext %0) #0 {
  %2 = alloca ptr, align 8
  %3 = alloca i16, align 2
  store i16 %0, ptr %3, align 2, !tbaa !63
  %4 = load i16, ptr %3, align 2, !tbaa !63
  %5 = zext i16 %4 to i32
  switch i32 %5, label %8 [
    i32 768, label %6
    i32 769, label %7
    i32 770, label %7
    i32 771, label %7
    i32 65279, label %7
    i32 65277, label %7
  ]

6:                                                ; preds = %1
  store ptr @SSLv3_enc_data, ptr %2, align 8
  br label %9

7:                                                ; preds = %1, %1, %1, %1, %1
  store ptr @TLSv1_enc_data, ptr %2, align 8
  br label %9

8:                                                ; preds = %1
  store ptr null, ptr %2, align 8
  br label %9

9:                                                ; preds = %8, %7, %6
  %10 = load ptr, ptr %2, align 8
  ret ptr %10
}