; Function Attrs: mustprogress nofree norecurse nosync nounwind willreturn memory(none) uwtable
define hidden noundef ptr @ssl3_get_enc_method(i16 noundef zeroext %0) local_unnamed_addr #13 {
  switch i16 %0, label %3 [
    i16 768, label %4
    i16 769, label %2
    i16 770, label %2
    i16 771, label %2
    i16 -257, label %2
    i16 -259, label %2
  ]

2:                                                ; preds = %1, %1, %1, %1, %1
  br label %4

3:                                                ; preds = %1
  br label %4

4:                                                ; preds = %1, %3, %2
  %.0 = phi ptr [ null, %3 ], [ @TLSv1_enc_data, %2 ], [ @SSLv3_enc_data, %1 ]
  ret ptr %.0
}